; Function Attrs: nofree norecurse nosync nounwind memory(argmem: readwrite) uwtable
define internal void @blend_multiply128_8bit(ptr noundef readonly captures(none) %0, i64 noundef %1, ptr noundef readonly captures(none) %2, i64 noundef %3, ptr noundef writeonly captures(none) %4, i64 noundef %5, i64 noundef %6, i64 noundef %7, ptr noundef readonly captures(none) %8, ptr readnone captures(none) %9) #6 {
  %11 = getelementptr inbounds nuw i8, ptr %8, i64 8
  %12 = load double, ptr %11, align 8, !tbaa !70
  %13 = fptrunc nsz double %12 to float
  %14 = icmp sgt i64 %7, 0
  %15 = icmp sgt i64 %6, 0
  %or.cond = and i1 %14, %15
  br i1 %or.cond, label %.preheader.us, label %._crit_edge39

.preheader.us:                                    ; preds = %10, %._crit_edge.us
  %indvars.iv43 = phi i64 [ %indvars.iv.next44, %._crit_edge.us ], [ 0, %10 ]
  %.03037.us = phi ptr [ %37, %._crit_edge.us ], [ %4, %10 ]
  %.03136.us = phi ptr [ %39, %._crit_edge.us ], [ %2, %10 ]
  %.03235.us = phi ptr [ %38, %._crit_edge.us ], [ %0, %10 ]
  br label %16

16:                                               ; preds = %.preheader.us, %16
  %indvars.iv = phi i64 [ 0, %.preheader.us ], [ %indvars.iv.next, %16 ]
  %17 = getelementptr inbounds nuw i8, ptr %.03235.us, i64 %indvars.iv
  %18 = load i8, ptr %17, align 1, !tbaa !89
  %19 = zext i8 %18 to i32
  %20 = uitofp i8 %18 to float
  %21 = add nsw i32 %19, -128
  %22 = getelementptr inbounds nuw i8, ptr %.03136.us, i64 %indvars.iv
  %23 = load i8, ptr %22, align 1, !tbaa !89
  %24 = zext i8 %23 to i32
  %25 = mul nsw i32 %21, %24
  %26 = sitofp i32 %25 to float
  %27 = fmul nsz float %26, 3.125000e-02
  %28 = fadd nsz float %27, 1.280000e+02
  %29 = fptosi float %28 to i32
  %.not.i.us = icmp ult i32 %29, 256
  %isnotneg.i.us = icmp sgt i32 %29, -1
  %30 = sext i1 %isnotneg.i.us to i32
  %.0.i.us = select i1 %.not.i.us, i32 %29, i32 %30
  %31 = and i32 %.0.i.us, 255
  %32 = sub nsw i32 %31, %19
  %33 = sitofp i32 %32 to float
  %34 = tail call nsz float @llvm.fmuladd.f32(float %33, float %13, float %20)
  %35 = fptoui float %34 to i8
  %36 = getelementptr inbounds nuw i8, ptr %.03037.us, i64 %indvars.iv
  store i8 %35, ptr %36, align 1, !tbaa !89
  %indvars.iv.next = add nuw nsw i64 %indvars.iv, 1
  %exitcond.not = icmp eq i64 %indvars.iv.next, %6
  br i1 %exitcond.not, label %._crit_edge.us, label %16, !llvm.loop !132

._crit_edge.us:                                   ; preds = %16
  %37 = getelementptr inbounds i8, ptr %.03037.us, i64 %5
  %38 = getelementptr inbounds i8, ptr %.03235.us, i64 %1
  %39 = getelementptr inbounds i8, ptr %.03136.us, i64 %3
  %indvars.iv.next44 = add nuw nsw i64 %indvars.iv43, 1
  %exitcond46.not = icmp eq i64 %indvars.iv.next44, %7
  br i1 %exitcond46.not, label %._crit_edge39, label %.preheader.us, !llvm.loop !133

._crit_edge39:                                    ; preds = %._crit_edge.us, %10
  ret void
}